target datalayout = "e-m:e-p270:32:32-p271:32:32-p272:64:64-i64:64-i128:128-f80:128-n8:16:32:64-S128"
target triple = "x86_64-unknown-linux-gnu"

%struct.SCSISense = type { i8, i8, i8 }
%struct.VirtIOSCSICommon = type { %struct.VirtIODevice, %struct.VirtIOSCSIConf, i32, i32, ptr, ptr, ptr }
%struct.VirtIODevice = type { %struct.DeviceState, ptr, i8, i8, i16, i64, i64, i64, i64, ptr, i16, i32, i32, ptr, %struct.MemoryListener, i16, i8, i8, i8, i8, i8, i8, i8, i8, i8, ptr, ptr, i8, i8, ptr, ptr, %union.anon.1, %struct.EventNotifier, i8 }
%struct.DeviceState = type { %struct.Object, ptr, ptr, i8, i8, i64, ptr, i32, i8, ptr, %struct.NamedGPIOListHead, %struct.NamedClockListHead, %struct.BusStateHead, i32, i32, i32, %struct.ResettableState, ptr, %struct.MemReentrancyGuard }
%struct.Object = type { ptr, ptr, ptr, i32, ptr }
%struct.NamedGPIOListHead = type { ptr }
%struct.NamedClockListHead = type { ptr }
%struct.BusStateHead = type { ptr }
%struct.ResettableState = type { i32, i8, i8 }
%struct.MemReentrancyGuard = type { i8 }
%struct.MemoryListener = type { ptr, ptr, ptr, ptr, ptr, ptr, ptr, ptr, ptr, ptr, ptr, ptr, ptr, ptr, ptr, ptr, ptr, i32, ptr, ptr, %union.anon, %union.anon.0 }
%union.anon = type { %struct.QTailQLink }
%struct.QTailQLink = type { ptr, ptr }
%union.anon.0 = type { %struct.QTailQLink }
%union.anon.1 = type { %struct.QTailQLink }
%struct.EventNotifier = type { i32, i32, i8 }
%struct.VirtIOSCSIConf = type { i32, i32, i8, i32, i32, ptr, ptr, %struct.CharBackend, i32, ptr }
%struct.CharBackend = type { ptr, ptr, ptr, ptr, ptr, ptr, i32, i32 }
%struct.VirtIOSCSI = type { %struct.VirtIOSCSICommon, %struct.SCSIBus, i32, i8, ptr, %union.anon.3, ptr, i8, i8, i8, i8, i32 }
%struct.SCSIBus = type { %struct.BusState, i32, %struct.SCSISense, ptr, i32 }
%struct.BusState = type { %struct.Object, ptr, ptr, ptr, i32, i8, i8, i32, %union.BusChildHead, %struct.BusStateEntry, %struct.ResettableState }
%union.BusChildHead = type { %struct.QTailQLink }
%struct.BusStateEntry = type { ptr, ptr }
%union.anon.3 = type { %struct.QTailQLink }

@.str = private unnamed_addr constant [30 x i8] c"../qemu/hw/scsi/virtio-scsi.c\00", align 1
@.str.5 = private unnamed_addr constant [19 x i8] c"virtio-scsi-common\00", align 1
@.str.6 = private unnamed_addr constant [110 x i8] c"/home/dtcxzyw/WorkSpace/Projects/compilers/llvm-opt-benchmark/bench/qemu/qemu/include/hw/virtio/virtio-scsi.h\00", align 1
@__func__.VIRTIO_SCSI_COMMON = private unnamed_addr constant [19 x i8] c"VIRTIO_SCSI_COMMON\00", align 1
@.str.8 = private unnamed_addr constant [101 x i8] c"/home/dtcxzyw/WorkSpace/Projects/compilers/llvm-opt-benchmark/bench/qemu/qemu/include/hw/qdev-core.h\00", align 1
@.str.9 = private unnamed_addr constant [19 x i8] c"virtio-scsi-device\00", align 1
@__func__.VIRTIO_SCSI = private unnamed_addr constant [12 x i8] c"VIRTIO_SCSI\00", align 1
@.str.52 = private unnamed_addr constant [4 x i8] c"bus\00", align 1
@__func__.BUS = private unnamed_addr constant [4 x i8] c"BUS\00", align 1
@.str.54 = private unnamed_addr constant [22 x i8] c"!s->dataplane_started\00", align 1
@__PRETTY_FUNCTION__.virtio_scsi_reset = private unnamed_addr constant [39 x i8] c"void virtio_scsi_reset(VirtIODevice *)\00", align 1

; Function Attrs: nounwind sspstrong uwtable
define internal ptr @BUS(ptr noundef %obj) #0 {
entry:
  %obj.addr = alloca ptr, align 8
  store ptr %obj, ptr %obj.addr, align 8
  %0 = load ptr, ptr %obj.addr, align 8
  %call = call ptr @object_dynamic_cast_assert(ptr noundef %0, ptr noundef @.str.52, ptr noundef @.str.8, i32 noundef 316, ptr noundef @__func__.BUS)
  ret ptr %call
}

; Function Attrs: nounwind sspstrong uwtable
define internal ptr @VIRTIO_SCSI_COMMON(ptr noundef %obj) #0 {
entry:
  %obj.addr = alloca ptr, align 8
  store ptr %obj, ptr %obj.addr, align 8
  %0 = load ptr, ptr %obj.addr, align 8
  %call = call ptr @object_dynamic_cast_assert(ptr noundef %0, ptr noundef @.str.5, ptr noundef @.str.6, i32 noundef 28, ptr noundef @__func__.VIRTIO_SCSI_COMMON)
  ret ptr %call
}

; Function Attrs: nounwind sspstrong uwtable
define internal ptr @VIRTIO_SCSI(ptr noundef %obj) #0 {
entry:
  %obj.addr = alloca ptr, align 8
  store ptr %obj, ptr %obj.addr, align 8
  %0 = load ptr, ptr %obj.addr, align 8
  %call = call ptr @object_dynamic_cast_assert(ptr noundef %0, ptr noundef @.str.9, ptr noundef @.str.6, i32 noundef 31, ptr noundef @__func__.VIRTIO_SCSI)
  ret ptr %call
}

; Function Attrs: nounwind sspstrong uwtable
define internal void @virtio_scsi_reset(ptr noundef %vdev) #0 {
entry:
  %vdev.addr = alloca ptr, align 8
  %s = alloca ptr, align 8
  %vs = alloca ptr, align 8
  %.atomictmp = alloca i32, align 4
  %atomic-temp = alloca i32, align 4
  %.atomictmp4 = alloca i32, align 4
  %atomic-temp5 = alloca i32, align 4
  store ptr %vdev, ptr %vdev.addr, align 8
  %0 = load ptr, ptr %vdev.addr, align 8
  %call = call ptr @VIRTIO_SCSI(ptr noundef %0)
  store ptr %call, ptr %s, align 8
  %1 = load ptr, ptr %vdev.addr, align 8
  %call1 = call ptr @VIRTIO_SCSI_COMMON(ptr noundef %1)
  store ptr %call1, ptr %vs, align 8
  %2 = load ptr, ptr %s, align 8
  %dataplane_started = getelementptr inbounds %struct.VirtIOSCSI, ptr %2, i32 0, i32 7
  %3 = load i8, ptr %dataplane_started, align 8
  %tobool = trunc i8 %3 to i1
  br i1 %tobool, label %if.else, label %if.then

if.then:                                          ; preds = %entry
  br label %if.end

if.else:                                          ; preds = %entry
  call void @__assert_fail(ptr noundef @.str.54, ptr noundef @.str, i32 noundef 924, ptr noundef @__PRETTY_FUNCTION__.virtio_scsi_reset) #11
  unreachable

if.end:                                           ; preds = %if.then
  %4 = load ptr, ptr %s, align 8
  call void @virtio_scsi_reset_tmf_bh(ptr noundef %4)
  %5 = load ptr, ptr %s, align 8
  %resetting = getelementptr inbounds %struct.VirtIOSCSI, ptr %5, i32 0, i32 2
  store i32 1, ptr %.atomictmp, align 4
  %6 = load i32, ptr %.atomictmp, align 4
  %7 = atomicrmw add ptr %resetting, i32 %6 seq_cst, align 8
  store i32 %7, ptr %atomic-temp, align 4
  %8 = load ptr, ptr %s, align 8
  %bus = getelementptr inbounds %struct.VirtIOSCSI, ptr %8, i32 0, i32 1
  %call2 = call ptr @BUS(ptr noundef %bus)
  call void @bus_cold_reset(ptr noundef %call2)
  %9 = load ptr, ptr %s, align 8
  %resetting3 = getelementptr inbounds %struct.VirtIOSCSI, ptr %9, i32 0, i32 2
  store i32 1, ptr %.atomictmp4, align 4
  %10 = load i32, ptr %.atomictmp4, align 4
  %11 = atomicrmw sub ptr %resetting3, i32 %10 seq_cst, align 8
  store i32 %11, ptr %atomic-temp5, align 4
  %12 = load ptr, ptr %vs, align 8
  %sense_size = getelementptr inbounds %struct.VirtIOSCSICommon, ptr %12, i32 0, i32 2
  store i32 96, ptr %sense_size, align 8
  %13 = load ptr, ptr %vs, align 8
  %cdb_size = getelementptr inbounds %struct.VirtIOSCSICommon, ptr %13, i32 0, i32 3
  store i32 32, ptr %cdb_size, align 4
  %14 = load ptr, ptr %s, align 8
  %events_dropped = getelementptr inbounds %struct.VirtIOSCSI, ptr %14, i32 0, i32 3
  store i8 0, ptr %events_dropped, align 4
  ret void
}