; Function Attrs: nounwind sspstrong uwtable
define internal void @virtio_scsi_reset(ptr noundef %vdev) #0 {
entry:
  %call.i = tail call ptr @object_dynamic_cast_assert(ptr noundef %vdev, ptr noundef nonnull @.str.9, ptr noundef nonnull @.str.6, i32 noundef 31, ptr noundef nonnull @__func__.VIRTIO_SCSI) #13
  %call.i8 = tail call ptr @object_dynamic_cast_assert(ptr noundef %vdev, ptr noundef nonnull @.str.5, ptr noundef nonnull @.str.6, i32 noundef 28, ptr noundef nonnull @__func__.VIRTIO_SCSI_COMMON) #13
  %dataplane_started = getelementptr inbounds nuw i8, ptr %call.i, i64 848
  %0 = load i8, ptr %dataplane_started, align 8
  %tobool = trunc i8 %0 to i1
  br i1 %tobool, label %if.else, label %if.end

if.else:                                          ; preds = %entry
  tail call void @__assert_fail(ptr noundef nonnull @.str.54, ptr noundef nonnull @.str, i32 noundef 924, ptr noundef nonnull @__PRETTY_FUNCTION__.virtio_scsi_reset) #15
  unreachable

if.end:                                           ; preds = %entry
  tail call fastcc void @virtio_scsi_reset_tmf_bh(ptr noundef nonnull %call.i)
  %resetting = getelementptr inbounds nuw i8, ptr %call.i, i64 808
  %1 = atomicrmw add ptr %resetting, i32 1 seq_cst, align 8
  %bus = getelementptr inbounds nuw i8, ptr %call.i, i64 664
  %call.i9 = tail call ptr @object_dynamic_cast_assert(ptr noundef nonnull %bus, ptr noundef nonnull @.str.52, ptr noundef nonnull @.str.8, i32 noundef 316, ptr noundef nonnull @__func__.BUS) #13
  tail call void @bus_cold_reset(ptr noundef %call.i9) #13
  %2 = atomicrmw sub ptr %resetting, i32 1 seq_cst, align 8
  %sense_size = getelementptr inbounds nuw i8, ptr %call.i8, i64 632
  store i32 96, ptr %sense_size, align 8
  %cdb_size = getelementptr inbounds nuw i8, ptr %call.i8, i64 636
  store i32 32, ptr %cdb_size, align 4
  %events_dropped = getelementptr inbounds nuw i8, ptr %call.i, i64 812
  store i8 0, ptr %events_dropped, align 4
  ret void
}